target datalayout = "e-m:e-p270:32:32-p271:32:32-p272:64:64-i64:64-i128:128-f80:128-n8:16:32:64-S128"
target triple = "x86_64-pc-linux-gnu"

%struct.pmix_value = type { i16, %union.anon }
%union.anon = type { %struct.pmix_envar_t }
%struct.pmix_envar_t = type { ptr, ptr, i8 }
%struct.pmix_proc = type { [256 x i8], i32 }
%struct.pmix_pdata = type { %struct.pmix_proc, [512 x i8], %struct.pmix_value }

@.str.76 = private unnamed_addr constant [19 x i8] c"%s  %s  KEY: %s %s\00", align 1
@.str.77 = private unnamed_addr constant [5 x i8] c"NULL\00", align 1

; Function Attrs: nounwind uwtable
define i32 @pmix20_bfrop_print_pdata(ptr noundef %0, ptr noundef %1, ptr noundef %2, i16 noundef zeroext %3) #0 {
  %5 = alloca i32, align 4
  %6 = alloca ptr, align 8
  %7 = alloca ptr, align 8
  %8 = alloca ptr, align 8
  %9 = alloca i16, align 2
  %10 = alloca ptr, align 8
  %11 = alloca ptr, align 8
  %12 = alloca i32, align 4
  %13 = alloca i32, align 4
  store ptr %0, ptr %6, align 8, !tbaa !3
  store ptr %1, ptr %7, align 8, !tbaa !8
  store ptr %2, ptr %8, align 8, !tbaa !70
  store i16 %3, ptr %9, align 2, !tbaa !11
  call void @llvm.lifetime.start.p0(i64 8, ptr %10) #7
  call void @llvm.lifetime.start.p0(i64 8, ptr %11) #7
  call void @llvm.lifetime.start.p0(i64 4, ptr %12) #7
  %14 = load ptr, ptr %8, align 8, !tbaa !70
  %15 = getelementptr inbounds nuw %struct.pmix_pdata, ptr %14, i32 0, i32 0
  %16 = call i32 @pmix20_bfrop_print_proc(ptr noundef %10, ptr noundef null, ptr noundef %15, i16 noundef zeroext 22)
  %17 = load ptr, ptr %8, align 8, !tbaa !70
  %18 = getelementptr inbounds nuw %struct.pmix_pdata, ptr %17, i32 0, i32 2
  %19 = call i32 @pmix20_bfrop_print_value(ptr noundef %11, ptr noundef null, ptr noundef %18, i16 noundef zeroext 21)
  %20 = load ptr, ptr %6, align 8, !tbaa !3
  %21 = load ptr, ptr %7, align 8, !tbaa !8
  %22 = load ptr, ptr %10, align 8, !tbaa !8
  %23 = load ptr, ptr %8, align 8, !tbaa !70
  %24 = getelementptr inbounds nuw %struct.pmix_pdata, ptr %23, i32 0, i32 1
  %25 = getelementptr inbounds [512 x i8], ptr %24, i64 0, i64 0
  %26 = load ptr, ptr %11, align 8, !tbaa !8
  %27 = icmp eq ptr null, %26
  br i1 %27, label %28, label %29

28:                                               ; preds = %4
  br label %31

29:                                               ; preds = %4
  %30 = load ptr, ptr %11, align 8, !tbaa !8
  br label %31

31:                                               ; preds = %29, %28
  %32 = phi ptr [ @.str.77, %28 ], [ %30, %29 ]
  %33 = call i32 (ptr, ptr, ...) @asprintf(ptr noundef %20, ptr noundef @.str.76, ptr noundef %21, ptr noundef %22, ptr noundef %25, ptr noundef %32) #7
  store i32 %33, ptr %12, align 4, !tbaa !21
  %34 = load ptr, ptr %10, align 8, !tbaa !8
  %35 = icmp ne ptr null, %34
  br i1 %35, label %36, label %38

36:                                               ; preds = %31
  %37 = load ptr, ptr %10, align 8, !tbaa !8
  call void @free(ptr noundef %37) #7
  br label %38

38:                                               ; preds = %36, %31
  %39 = load ptr, ptr %11, align 8, !tbaa !8
  %40 = icmp ne ptr null, %39
  br i1 %40, label %41, label %43

41:                                               ; preds = %38
  %42 = load ptr, ptr %11, align 8, !tbaa !8
  call void @free(ptr noundef %42) #7
  br label %43

43:                                               ; preds = %41, %38
  %44 = load i32, ptr %12, align 4, !tbaa !21
  %45 = icmp sgt i32 0, %44
  br i1 %45, label %46, label %47

46:                                               ; preds = %43
  store i32 -32, ptr %5, align 4
  store i32 1, ptr %13, align 4
  br label %48

47:                                               ; preds = %43
  store i32 0, ptr %5, align 4
  store i32 1, ptr %13, align 4
  br label %48

48:                                               ; preds = %47, %46
  call void @llvm.lifetime.end.p0(i64 4, ptr %12) #7
  call void @llvm.lifetime.end.p0(i64 8, ptr %11) #7
  call void @llvm.lifetime.end.p0(i64 8, ptr %10) #7
  %49 = load i32, ptr %5, align 4
  ret i32 %49
}