; Function Attrs: nounwind uwtable
define range(i32 -32, 1) i32 @pmix20_bfrop_print_pdata(ptr noundef %0, ptr noundef %1, ptr noundef %2, i16 noundef zeroext %3) local_unnamed_addr #0 {
  %5 = alloca ptr, align 8
  %6 = alloca ptr, align 8
  call void @llvm.lifetime.start.p0(i64 8, ptr nonnull %5) #7
  call void @llvm.lifetime.start.p0(i64 8, ptr nonnull %6) #7
  %7 = call i32 @pmix20_bfrop_print_proc(ptr noundef nonnull %5, ptr noundef null, ptr noundef %2, i16 zeroext poison)
  %8 = getelementptr inbounds nuw i8, ptr %2, i64 776
  %9 = call i32 @pmix20_bfrop_print_value(ptr noundef nonnull %6, ptr noundef null, ptr noundef nonnull %8, i16 zeroext poison)
  %10 = load ptr, ptr %5, align 8, !tbaa !20
  %11 = getelementptr inbounds nuw i8, ptr %2, i64 260
  %12 = load ptr, ptr %6, align 8, !tbaa !20
  %13 = icmp eq ptr %12, null
  %14 = select i1 %13, ptr @.str.77, ptr %12
  %15 = call i32 (ptr, ptr, ...) @asprintf(ptr noundef %0, ptr noundef nonnull @.str.76, ptr noundef %1, ptr noundef %10, ptr noundef nonnull %11, ptr noundef nonnull %14) #7
  %16 = load ptr, ptr %5, align 8, !tbaa !20
  %.not = icmp eq ptr %16, null
  br i1 %.not, label %18, label %17

17:                                               ; preds = %4
  call void @free(ptr noundef nonnull %16) #7
  br label %18

18:                                               ; preds = %17, %4
  %19 = load ptr, ptr %6, align 8, !tbaa !20
  %.not8 = icmp eq ptr %19, null
  br i1 %.not8, label %21, label %20

20:                                               ; preds = %18
  call void @free(ptr noundef nonnull %19) #7
  br label %21

21:                                               ; preds = %20, %18
  %22 = icmp slt i32 %15, 0
  %. = select i1 %22, i32 -32, i32 0
  call void @llvm.lifetime.end.p0(i64 8, ptr nonnull %6) #7
  call void @llvm.lifetime.end.p0(i64 8, ptr nonnull %5) #7
  ret i32 %.
}